; Function Attrs: nounwind uwtable
define internal fastcc range(i32 0, 9203) i32 @_convert_data_null(ptr noundef nonnull %0) unnamed_addr #0 {
  %2 = getelementptr inbounds nuw i8, ptr %0, i64 4
  %3 = load i32, ptr %2, align 4
  switch i32 %3, label %12 [
    i32 65281, label %data_set_null.exit
    i32 65285, label %4
    i32 65286, label %7
  ]

4:                                                ; preds = %1
  %5 = getelementptr inbounds nuw i8, ptr %0, i64 8
  %6 = load ptr, ptr %5, align 8
  br label %data_get_string.exit

7:                                                ; preds = %1
  %8 = getelementptr inbounds nuw i8, ptr %0, i64 8
  br label %data_get_string.exit

data_get_string.exit:                             ; preds = %4, %7
  %.0.i = phi ptr [ %6, %4 ], [ %8, %7 ]
  %9 = load i8, ptr %.0.i, align 1
  switch i8 %9, label %10 [
    i8 0, label %.thread
    i8 126, label %.thread
  ]

10:                                               ; preds = %data_get_string.exit
  %11 = tail call i32 @xstrcasecmp(ptr noundef nonnull %.0.i, ptr noundef nonnull @.str.63) #16
  %.not13.not = icmp eq i32 %11, 0
  br i1 %.not13.not, label %.thread, label %data_set_null.exit

12:                                               ; preds = %1
  br label %data_set_null.exit

.thread:                                          ; preds = %data_get_string.exit, %data_get_string.exit, %10
  %13 = load i64, ptr getelementptr inbounds nuw (i8, ptr @slurm_conf, i64 320), align 8
  %14 = and i64 %13, 256
  %.not14 = icmp eq i64 %14, 0
  br i1 %.not14, label %20, label %15

15:                                               ; preds = %.thread
  %16 = load i32, ptr %2, align 4
  %switch28 = icmp eq i32 %16, 65285
  %17 = getelementptr inbounds nuw i8, ptr %0, i64 8
  br i1 %switch28, label %data_get_string.exit16.thread, label %data_get_string.exit18

data_get_string.exit16.thread:                    ; preds = %15
  %18 = load ptr, ptr %17, align 8
  br label %data_get_string.exit18

data_get_string.exit18:                           ; preds = %15, %data_get_string.exit16.thread
  %.0.i1524 = phi ptr [ %18, %data_get_string.exit16.thread ], [ %17, %15 ]
  %19 = tail call i64 @strlen(ptr noundef nonnull dereferenceable(1) %.0.i1524) #17
  tail call void (ptr, i64, i64, i64, ptr, ...) @_log_flag_hex(ptr noundef nonnull %.0.i1524, i64 noundef %19, i64 noundef -1, i64 noundef -1, ptr noundef nonnull @.str.98, ptr noundef nonnull @__func__._convert_data_null, ptr noundef nonnull %0) #16
  br label %20

20:                                               ; preds = %.thread, %data_get_string.exit18
  tail call fastcc void @_release(ptr noundef nonnull %0)
  store i32 65281, ptr %2, align 4
  %21 = load i64, ptr getelementptr inbounds nuw (i8, ptr @slurm_conf, i64 320), align 8
  %22 = and i64 %21, 256
  %.not8.i = icmp eq i64 %22, 0
  br i1 %.not8.i, label %data_set_null.exit, label %23

23:                                               ; preds = %20
  %24 = tail call i32 @get_log_level() #16
  %25 = icmp sgt i32 %24, 3
  br i1 %25, label %26, label %data_set_null.exit

26:                                               ; preds = %23
  tail call void (i32, ptr, ...) @log_var(i32 noundef 4, ptr noundef nonnull @.str.4, ptr noundef nonnull @__func__.data_set_null, ptr noundef nonnull %0) #16
  br label %data_set_null.exit

data_set_null.exit:                               ; preds = %1, %26, %23, %20, %10, %12
  %.011 = phi i32 [ 9202, %12 ], [ 0, %1 ], [ 9202, %10 ], [ 0, %20 ], [ 0, %23 ], [ 0, %26 ]
  ret i32 %.011
}